
example3_1.o:     file format elf32-littlearm


Disassembly of section .init:

000102cc <_init>:
   102cc:	e92d4008 	push	{r3, lr}
   102d0:	eb000023 	bl	10364 <call_weak_fn>
   102d4:	e8bd8008 	pop	{r3, pc}

Disassembly of section .plt:

000102d8 <__libc_start_main@plt-0x14>:
   102d8:	e52de004 	push	{lr}		; (str lr, [sp, #-4]!)
   102dc:	e59fe004 	ldr	lr, [pc, #4]	; 102e8 <_init+0x1c>
   102e0:	e08fe00e 	add	lr, pc, lr
   102e4:	e5bef008 	ldr	pc, [lr, #8]!
   102e8:	00010d18 	andeq	r0, r1, r8, lsl sp

000102ec <__libc_start_main@plt>:
   102ec:	e28fc600 	add	ip, pc, #0, 12
   102f0:	e28cca10 	add	ip, ip, #16, 20	; 0x10000
   102f4:	e5bcfd18 	ldr	pc, [ip, #3352]!	; 0xd18

000102f8 <__gmon_start__@plt>:
   102f8:	e28fc600 	add	ip, pc, #0, 12
   102fc:	e28cca10 	add	ip, ip, #16, 20	; 0x10000
   10300:	e5bcfd10 	ldr	pc, [ip, #3344]!	; 0xd10

00010304 <__printf_chk@plt>:
   10304:	e28fc600 	add	ip, pc, #0, 12
   10308:	e28cca10 	add	ip, ip, #16, 20	; 0x10000
   1030c:	e5bcfd08 	ldr	pc, [ip, #3336]!	; 0xd08

00010310 <abort@plt>:
   10310:	e28fc600 	add	ip, pc, #0, 12
   10314:	e28cca10 	add	ip, ip, #16, 20	; 0x10000
   10318:	e5bcfd00 	ldr	pc, [ip, #3328]!	; 0xd00

Disassembly of section .text:

0001031c <main>:
   1031c:	f240 4168 	movw	r1, #1128	; 0x468
   10320:	2220      	movs	r2, #32
   10322:	b508      	push	{r3, lr}
   10324:	f2c0 0101 	movt	r1, #1
   10328:	2001      	movs	r0, #1
   1032a:	f7ff efec 	blx	10304 <__printf_chk@plt>
   1032e:	2000      	movs	r0, #0
   10330:	bd08      	pop	{r3, pc}
   10332:	bf00      	nop

00010334 <_start>:
   10334:	f04f 0b00 	mov.w	fp, #0
   10338:	f04f 0e00 	mov.w	lr, #0
   1033c:	bc02      	pop	{r1}
   1033e:	466a      	mov	r2, sp
   10340:	b404      	push	{r2}
   10342:	b401      	push	{r0}
   10344:	f8df c010 	ldr.w	ip, [pc, #16]	; 10358 <_start+0x24>
   10348:	f84d cd04 	str.w	ip, [sp, #-4]!
   1034c:	4803      	ldr	r0, [pc, #12]	; (1035c <_start+0x28>)
   1034e:	4b04      	ldr	r3, [pc, #16]	; (10360 <_start+0x2c>)
   10350:	f7ff efcc 	blx	102ec <__libc_start_main@plt>
   10354:	f7ff efdc 	blx	10310 <abort@plt>
   10358:	00010459 	andeq	r0, r1, r9, asr r4
   1035c:	0001031d 	andeq	r0, r1, sp, lsl r3
   10360:	00010419 	andeq	r0, r1, r9, lsl r4

00010364 <call_weak_fn>:
   10364:	e59f3014 	ldr	r3, [pc, #20]	; 10380 <call_weak_fn+0x1c>
   10368:	e59f2014 	ldr	r2, [pc, #20]	; 10384 <call_weak_fn+0x20>
   1036c:	e08f3003 	add	r3, pc, r3
   10370:	e7932002 	ldr	r2, [r3, r2]
   10374:	e3520000 	cmp	r2, #0
   10378:	012fff1e 	bxeq	lr
   1037c:	eaffffdd 	b	102f8 <__gmon_start__@plt>
   10380:	00010c8c 	andeq	r0, r1, ip, lsl #25
   10384:	0000001c 	andeq	r0, r0, ip, lsl r0

00010388 <deregister_tm_clones>:
   10388:	4b07      	ldr	r3, [pc, #28]	; (103a8 <deregister_tm_clones+0x20>)
   1038a:	f241 0028 	movw	r0, #4136	; 0x1028
   1038e:	f2c0 0002 	movt	r0, #2
   10392:	1a1b      	subs	r3, r3, r0
   10394:	2b06      	cmp	r3, #6
   10396:	d905      	bls.n	103a4 <deregister_tm_clones+0x1c>
   10398:	f240 0300 	movw	r3, #0
   1039c:	f2c0 0300 	movt	r3, #0
   103a0:	b103      	cbz	r3, 103a4 <deregister_tm_clones+0x1c>
   103a2:	4718      	bx	r3
   103a4:	4770      	bx	lr
   103a6:	bf00      	nop
   103a8:	0002102b 	andeq	r1, r2, fp, lsr #32

000103ac <register_tm_clones>:
   103ac:	f241 0328 	movw	r3, #4136	; 0x1028
   103b0:	f241 0028 	movw	r0, #4136	; 0x1028
   103b4:	f2c0 0302 	movt	r3, #2
   103b8:	f2c0 0002 	movt	r0, #2
   103bc:	1a19      	subs	r1, r3, r0
   103be:	1089      	asrs	r1, r1, #2
   103c0:	eb01 71d1 	add.w	r1, r1, r1, lsr #31
   103c4:	1049      	asrs	r1, r1, #1
   103c6:	d005      	beq.n	103d4 <register_tm_clones+0x28>
   103c8:	f240 0300 	movw	r3, #0
   103cc:	f2c0 0300 	movt	r3, #0
   103d0:	b103      	cbz	r3, 103d4 <register_tm_clones+0x28>
   103d2:	4718      	bx	r3
   103d4:	4770      	bx	lr
   103d6:	bf00      	nop

000103d8 <__do_global_dtors_aux>:
   103d8:	b510      	push	{r4, lr}
   103da:	f241 0428 	movw	r4, #4136	; 0x1028
   103de:	f2c0 0402 	movt	r4, #2
   103e2:	7823      	ldrb	r3, [r4, #0]
   103e4:	b91b      	cbnz	r3, 103ee <__do_global_dtors_aux+0x16>
   103e6:	f7ff ffcf 	bl	10388 <deregister_tm_clones>
   103ea:	2301      	movs	r3, #1
   103ec:	7023      	strb	r3, [r4, #0]
   103ee:	bd10      	pop	{r4, pc}

000103f0 <frame_dummy>:
   103f0:	f640 7014 	movw	r0, #3860	; 0xf14
   103f4:	b508      	push	{r3, lr}
   103f6:	f2c0 0002 	movt	r0, #2
   103fa:	6803      	ldr	r3, [r0, #0]
   103fc:	b913      	cbnz	r3, 10404 <frame_dummy+0x14>
   103fe:	e8bd 4008 	ldmia.w	sp!, {r3, lr}
   10402:	e7d3      	b.n	103ac <register_tm_clones>
   10404:	f240 0300 	movw	r3, #0
   10408:	f2c0 0300 	movt	r3, #0
   1040c:	2b00      	cmp	r3, #0
   1040e:	d0f6      	beq.n	103fe <frame_dummy+0xe>
   10410:	4798      	blx	r3
   10412:	e7f4      	b.n	103fe <frame_dummy+0xe>

00010414 <multiplybytwo>:
   10414:	0040      	lsls	r0, r0, #1
   10416:	4770      	bx	lr

00010418 <__libc_csu_init>:
   10418:	e92d 43f8 	stmdb	sp!, {r3, r4, r5, r6, r7, r8, r9, lr}
   1041c:	4607      	mov	r7, r0
   1041e:	4e0c      	ldr	r6, [pc, #48]	; (10450 <__libc_csu_init+0x38>)
   10420:	4688      	mov	r8, r1
   10422:	4d0c      	ldr	r5, [pc, #48]	; (10454 <__libc_csu_init+0x3c>)
   10424:	4691      	mov	r9, r2
   10426:	447e      	add	r6, pc
   10428:	f7ff ef50 	blx	102cc <_init>
   1042c:	447d      	add	r5, pc
   1042e:	1b76      	subs	r6, r6, r5
   10430:	10b6      	asrs	r6, r6, #2
   10432:	d00a      	beq.n	1044a <__libc_csu_init+0x32>
   10434:	3d04      	subs	r5, #4
   10436:	2400      	movs	r4, #0
   10438:	3401      	adds	r4, #1
   1043a:	f855 3f04 	ldr.w	r3, [r5, #4]!
   1043e:	4638      	mov	r0, r7
   10440:	4641      	mov	r1, r8
   10442:	464a      	mov	r2, r9
   10444:	4798      	blx	r3
   10446:	42b4      	cmp	r4, r6
   10448:	d1f6      	bne.n	10438 <__libc_csu_init+0x20>
   1044a:	e8bd 83f8 	ldmia.w	sp!, {r3, r4, r5, r6, r7, r8, r9, pc}
   1044e:	bf00      	nop
   10450:	00010ae6 	andeq	r0, r1, r6, ror #21
   10454:	00010adc 	ldrdeq	r0, [r1], -ip

00010458 <__libc_csu_fini>:
   10458:	4770      	bx	lr
   1045a:	bf00      	nop

Disassembly of section .fini:

0001045c <_fini>:
   1045c:	e92d4008 	push	{r3, lr}
   10460:	e8bd8008 	pop	{r3, pc}
